; Function Attrs: mustprogress uwtable
define internal void @_ZZN7rocksdb18WritePreparedTxnDB10InitializeERKSt6vectorImSaImEERKS1_IPNS_18ColumnFamilyHandleESaIS7_EEEN32CommitSubBatchPreReleaseCallback8CallbackEmbmmm(ptr noalias nocapture writeonly sret(%"class.rocksdb::Status") align 8 %agg.result, ptr nocapture noundef nonnull readonly align 8 dereferenceable(16) %this, i64 noundef %commit_seq, i1 zeroext %is_mem_disabled, i64 %0, i64 %1, i64 %2) unnamed_addr #2 align 2 personality ptr @__gxx_personality_v0 {
entry:
  %db_ = getelementptr inbounds i8, ptr %this, i64 8
  %3 = load ptr, ptr %db_, align 8
  tail call void @_ZN7rocksdb18WritePreparedTxnDB12AddCommittedEmmh(ptr noundef nonnull align 8 dereferenceable(1352) %3, i64 noundef %commit_seq, i64 noundef %commit_seq, i8 noundef zeroext 0)
  %state_.i.i = getelementptr inbounds i8, ptr %agg.result, i64 8
  store ptr null, ptr %state_.i.i, align 8, !alias.scope !100
  tail call void @llvm.memset.p0.i64(ptr noundef nonnull align 8 dereferenceable(6) %agg.result, i8 0, i64 6, i1 false), !alias.scope !100
  ret void
}